target datalayout = "e-m:e-p270:32:32-p271:32:32-p272:64:64-i64:64-i128:128-f80:128-n8:16:32:64-S128"
target triple = "x86_64-unknown-linux-gnu"

%struct.QTailQLink = type { ptr, ptr }
%struct.CompareState = type { %struct.Object, ptr, ptr, ptr, ptr, %struct.CharBackend, %struct.CharBackend, %struct.CharBackend, %struct.CharBackend, %struct.SocketReadState, %struct.SocketReadState, %struct.SocketReadState, %struct.SendCo, %struct.SendCo, i8, i64, i32, %struct._GQueue, ptr, ptr, ptr, ptr, ptr, i32, %union.anon.0 }
%struct.Object = type { ptr, ptr, ptr, i32, ptr }
%struct.CharBackend = type { ptr, ptr, ptr, ptr, ptr, ptr, i32, i32 }
%struct.SocketReadState = type { i32, i8, i32, i32, i32, [69632 x i8], ptr }
%struct.SendCo = type { ptr, ptr, ptr, %struct._GQueue, i8, i8, i32 }
%struct._GQueue = type { ptr, ptr, i32 }
%union.anon.0 = type { %struct.QTailQLink }

@.str = private unnamed_addr constant [27 x i8] c"../qemu/net/colo-compare.c\00", align 1
@.str.1 = private unnamed_addr constant [13 x i8] c"colo-compare\00", align 1
@__func__.COLO_COMPARE = private unnamed_addr constant [13 x i8] c"COLO_COMPARE\00", align 1

; Function Attrs: nounwind sspstrong uwtable
define internal ptr @COLO_COMPARE(ptr noundef %obj) #0 {
entry:
  %obj.addr = alloca ptr, align 8
  store ptr %obj, ptr %obj.addr, align 8
  %0 = load ptr, ptr %obj.addr, align 8
  %call = call ptr @object_dynamic_cast_assert(ptr noundef %0, ptr noundef @.str.1, ptr noundef @.str, i32 noundef 40, ptr noundef @__func__.COLO_COMPARE)
  ret ptr %call
}

; Function Attrs: nounwind sspstrong uwtable
define internal void @compare_get_expired_scan_cycle(ptr noundef %obj, ptr noundef %v, ptr noundef %name, ptr noundef %opaque, ptr noundef %errp) #0 {
entry:
  %obj.addr = alloca ptr, align 8
  %v.addr = alloca ptr, align 8
  %name.addr = alloca ptr, align 8
  %opaque.addr = alloca ptr, align 8
  %errp.addr = alloca ptr, align 8
  %s = alloca ptr, align 8
  %value = alloca i32, align 4
  store ptr %obj, ptr %obj.addr, align 8
  store ptr %v, ptr %v.addr, align 8
  store ptr %name, ptr %name.addr, align 8
  store ptr %opaque, ptr %opaque.addr, align 8
  store ptr %errp, ptr %errp.addr, align 8
  %0 = load ptr, ptr %obj.addr, align 8
  %call = call ptr @COLO_COMPARE(ptr noundef %0)
  store ptr %call, ptr %s, align 8
  %1 = load ptr, ptr %s, align 8
  %expired_scan_cycle = getelementptr inbounds %struct.CompareState, ptr %1, i32 0, i32 16
  %2 = load i32, ptr %expired_scan_cycle, align 8
  store i32 %2, ptr %value, align 4
  %3 = load ptr, ptr %v.addr, align 8
  %4 = load ptr, ptr %name.addr, align 8
  %5 = load ptr, ptr %errp.addr, align 8
  %call1 = call zeroext i1 @visit_type_uint32(ptr noundef %3, ptr noundef %4, ptr noundef %value, ptr noundef %5)
  ret void
}