; Function Attrs: nounwind sspstrong uwtable
define internal void @compare_get_expired_scan_cycle(ptr noundef %obj, ptr noundef %v, ptr noundef %name, ptr readnone captures(none) %opaque, ptr noundef %errp) #0 {
entry:
  %value = alloca i32, align 4
  %call.i = tail call ptr @object_dynamic_cast_assert(ptr noundef %obj, ptr noundef nonnull @.str.1, ptr noundef nonnull @.str, i32 noundef 40, ptr noundef nonnull @__func__.COLO_COMPARE) #16
  %expired_scan_cycle = getelementptr inbounds nuw i8, ptr %call.i, i64 209416
  %0 = load i32, ptr %expired_scan_cycle, align 8
  store i32 %0, ptr %value, align 4
  %call1 = call zeroext i1 @visit_type_uint32(ptr noundef %v, ptr noundef %name, ptr noundef nonnull %value, ptr noundef %errp) #16
  ret void
}